(lp0
S'/Users/lkreidberg/Desktop/Data/WASP33_HST12495/ibpc01emq_ima.fits'
p1
aS'/Users/lkreidberg/Desktop/Data/WASP33_HST12495/ibpc01enq_ima.fits'
p2
aS'/Users/lkreidberg/Desktop/Data/WASP33_HST12495/ibpc01epq_ima.fits'
p3
aS'/Users/lkreidberg/Desktop/Data/WASP33_HST12495/ibpc01erq_ima.fits'
p4
aS'/Users/lkreidberg/Desktop/Data/WASP33_HST12495/ibpc01esq_ima.fits'
p5
aS'/Users/lkreidberg/Desktop/Data/WASP33_HST12495/ibpc01euq_ima.fits'
p6
aS'/Users/lkreidberg/Desktop/Data/WASP33_HST12495/ibpc01ewq_ima.fits'
p7
aS'/Users/lkreidberg/Desktop/Data/WASP33_HST12495/ibpc01exq_ima.fits'
p8
aS'/Users/lkreidberg/Desktop/Data/WASP33_HST12495/ibpc01ezq_ima.fits'
p9
aS'/Users/lkreidberg/Desktop/Data/WASP33_HST12495/ibpc01f1q_ima.fits'
p10
aS'/Users/lkreidberg/Desktop/Data/WASP33_HST12495/ibpc01f2q_ima.fits'
p11
aS'/Users/lkreidberg/Desktop/Data/WASP33_HST12495/ibpc01f4q_ima.fits'
p12
aS'/Users/lkreidberg/Desktop/Data/WASP33_HST12495/ibpc01f6q_ima.fits'
p13
aS'/Users/lkreidberg/Desktop/Data/WASP33_HST12495/ibpc01f7q_ima.fits'
p14
aS'/Users/lkreidberg/Desktop/Data/WASP33_HST12495/ibpc01f9q_ima.fits'
p15
aS'/Users/lkreidberg/Desktop/Data/WASP33_HST12495/ibpc01fbq_ima.fits'
p16
aS'/Users/lkreidberg/Desktop/Data/WASP33_HST12495/ibpc01fcq_ima.fits'
p17
aS'/Users/lkreidberg/Desktop/Data/WASP33_HST12495/ibpc01feq_ima.fits'
p18
aS'/Users/lkreidberg/Desktop/Data/WASP33_HST12495/ibpc01fgq_ima.fits'
p19
aS'/Users/lkreidberg/Desktop/Data/WASP33_HST12495/ibpc01fhq_ima.fits'
p20
aS'/Users/lkreidberg/Desktop/Data/WASP33_HST12495/ibpc01fjq_ima.fits'
p21
aS'/Users/lkreidberg/Desktop/Data/WASP33_HST12495/ibpc01flq_ima.fits'
p22
aS'/Users/lkreidberg/Desktop/Data/WASP33_HST12495/ibpc01fmq_ima.fits'
p23
aS'/Users/lkreidberg/Desktop/Data/WASP33_HST12495/ibpc01foq_ima.fits'
p24
aS'/Users/lkreidberg/Desktop/Data/WASP33_HST12495/ibpc01fqq_ima.fits'
p25
aS'/Users/lkreidberg/Desktop/Data/WASP33_HST12495/ibpc01frq_ima.fits'
p26
aS'/Users/lkreidberg/Desktop/Data/WASP33_HST12495/ibpc01ftq_ima.fits'
p27
aS'/Users/lkreidberg/Desktop/Data/WASP33_HST12495/ibpc01fvq_ima.fits'
p28
aS'/Users/lkreidberg/Desktop/Data/WASP33_HST12495/ibpc01fwq_ima.fits'
p29
aS'/Users/lkreidberg/Desktop/Data/WASP33_HST12495/ibpc01fyq_ima.fits'
p30
aS'/Users/lkreidberg/Desktop/Data/WASP33_HST12495/ibpc01g1q_ima.fits'
p31
aS'/Users/lkreidberg/Desktop/Data/WASP33_HST12495/ibpc01g3q_ima.fits'
p32
aS'/Users/lkreidberg/Desktop/Data/WASP33_HST12495/ibpc01g6q_ima.fits'
p33
aS'/Users/lkreidberg/Desktop/Data/WASP33_HST12495/ibpc01g8q_ima.fits'
p34
aS'/Users/lkreidberg/Desktop/Data/WASP33_HST12495/ibpc01gaq_ima.fits'
p35
aS'/Users/lkreidberg/Desktop/Data/WASP33_HST12495/ibpc01gbq_ima.fits'
p36
aS'/Users/lkreidberg/Desktop/Data/WASP33_HST12495/ibpc01gdq_ima.fits'
p37
aS'/Users/lkreidberg/Desktop/Data/WASP33_HST12495/ibpc01gfq_ima.fits'
p38
aS'/Users/lkreidberg/Desktop/Data/WASP33_HST12495/ibpc01ggq_ima.fits'
p39
aS'/Users/lkreidberg/Desktop/Data/WASP33_HST12495/ibpc01giq_ima.fits'
p40
aS'/Users/lkreidberg/Desktop/Data/WASP33_HST12495/ibpc01gkq_ima.fits'
p41
aS'/Users/lkreidberg/Desktop/Data/WASP33_HST12495/ibpc01gzq_ima.fits'
p42
aS'/Users/lkreidberg/Desktop/Data/WASP33_HST12495/ibpc01haq_ima.fits'
p43
aS'/Users/lkreidberg/Desktop/Data/WASP33_HST12495/ibpc01hcq_ima.fits'
p44
aS'/Users/lkreidberg/Desktop/Data/WASP33_HST12495/ibpc01heq_ima.fits'
p45
aS'/Users/lkreidberg/Desktop/Data/WASP33_HST12495/ibpc01hfq_ima.fits'
p46
aS'/Users/lkreidberg/Desktop/Data/WASP33_HST12495/ibpc01hhq_ima.fits'
p47
aS'/Users/lkreidberg/Desktop/Data/WASP33_HST12495/ibpc01hjq_ima.fits'
p48
aS'/Users/lkreidberg/Desktop/Data/WASP33_HST12495/ibpc01hkq_ima.fits'
p49
aS'/Users/lkreidberg/Desktop/Data/WASP33_HST12495/ibpc01hmq_ima.fits'
p50
aS'/Users/lkreidberg/Desktop/Data/WASP33_HST12495/ibpc01hoq_ima.fits'
p51
aS'/Users/lkreidberg/Desktop/Data/WASP33_HST12495/ibpc01hpq_ima.fits'
p52
aS'/Users/lkreidberg/Desktop/Data/WASP33_HST12495/ibpc01hrq_ima.fits'
p53
aS'/Users/lkreidberg/Desktop/Data/WASP33_HST12495/ibpc01htq_ima.fits'
p54
aS'/Users/lkreidberg/Desktop/Data/WASP33_HST12495/ibpc01huq_ima.fits'
p55
aS'/Users/lkreidberg/Desktop/Data/WASP33_HST12495/ibpc01hwq_ima.fits'
p56
aS'/Users/lkreidberg/Desktop/Data/WASP33_HST12495/ibpc01hyq_ima.fits'
p57
aS'/Users/lkreidberg/Desktop/Data/WASP33_HST12495/ibpc01hzq_ima.fits'
p58
aS'/Users/lkreidberg/Desktop/Data/WASP33_HST12495/ibpc01i1q_ima.fits'
p59
aS'/Users/lkreidberg/Desktop/Data/WASP33_HST12495/ibpc01i3q_ima.fits'
p60
aS'/Users/lkreidberg/Desktop/Data/WASP33_HST12495/ibpc01i4q_ima.fits'
p61
aS'/Users/lkreidberg/Desktop/Data/WASP33_HST12495/ibpc01i6q_ima.fits'
p62
aS'/Users/lkreidberg/Desktop/Data/WASP33_HST12495/ibpc01i8q_ima.fits'
p63
aS'/Users/lkreidberg/Desktop/Data/WASP33_HST12495/ibpc01i9q_ima.fits'
p64
aS'/Users/lkreidberg/Desktop/Data/WASP33_HST12495/ibpc01ibq_ima.fits'
p65
aS'/Users/lkreidberg/Desktop/Data/WASP33_HST12495/ibpc01idq_ima.fits'
p66
aS'/Users/lkreidberg/Desktop/Data/WASP33_HST12495/ibpc01ieq_ima.fits'
p67
aS'/Users/lkreidberg/Desktop/Data/WASP33_HST12495/ibpc01igq_ima.fits'
p68
aS'/Users/lkreidberg/Desktop/Data/WASP33_HST12495/ibpc01iiq_ima.fits'
p69
aS'/Users/lkreidberg/Desktop/Data/WASP33_HST12495/ibpc01ijq_ima.fits'
p70
aS'/Users/lkreidberg/Desktop/Data/WASP33_HST12495/ibpc01ilq_ima.fits'
p71
aS'/Users/lkreidberg/Desktop/Data/WASP33_HST12495/ibpc01inq_ima.fits'
p72
aS'/Users/lkreidberg/Desktop/Data/WASP33_HST12495/ibpc01ioq_ima.fits'
p73
aS'/Users/lkreidberg/Desktop/Data/WASP33_HST12495/ibpc01iqq_ima.fits'
p74
aS'/Users/lkreidberg/Desktop/Data/WASP33_HST12495/ibpc01isq_ima.fits'
p75
aS'/Users/lkreidberg/Desktop/Data/WASP33_HST12495/ibpc01itq_ima.fits'
p76
aS'/Users/lkreidberg/Desktop/Data/WASP33_HST12495/ibpc01ivq_ima.fits'
p77
aS'/Users/lkreidberg/Desktop/Data/WASP33_HST12495/ibpc01ixq_ima.fits'
p78
aS'/Users/lkreidberg/Desktop/Data/WASP33_HST12495/ibpc01iyq_ima.fits'
p79
aS'/Users/lkreidberg/Desktop/Data/WASP33_HST12495/ibpc01j0q_ima.fits'
p80
aS'/Users/lkreidberg/Desktop/Data/WASP33_HST12495/ibpc01j3q_ima.fits'
p81
aS'/Users/lkreidberg/Desktop/Data/WASP33_HST12495/ibpc01j5q_ima.fits'
p82
aS'/Users/lkreidberg/Desktop/Data/WASP33_HST12495/ibpc01j8q_ima.fits'
p83
aS'/Users/lkreidberg/Desktop/Data/WASP33_HST12495/ibpc01jaq_ima.fits'
p84
aS'/Users/lkreidberg/Desktop/Data/WASP33_HST12495/ibpc01jbq_ima.fits'
p85
aS'/Users/lkreidberg/Desktop/Data/WASP33_HST12495/ibpc01jcq_ima.fits'
p86
aS'/Users/lkreidberg/Desktop/Data/WASP33_HST12495/ibpc01jdq_ima.fits'
p87
aS'/Users/lkreidberg/Desktop/Data/WASP33_HST12495/ibpc01jeq_ima.fits'
p88
aS'/Users/lkreidberg/Desktop/Data/WASP33_HST12495/ibpc01jfq_ima.fits'
p89
aS'/Users/lkreidberg/Desktop/Data/WASP33_HST12495/ibpc01jgq_ima.fits'
p90
aS'/Users/lkreidberg/Desktop/Data/WASP33_HST12495/ibpc01jhq_ima.fits'
p91
aS'/Users/lkreidberg/Desktop/Data/WASP33_HST12495/ibpc01jiq_ima.fits'
p92
aS'/Users/lkreidberg/Desktop/Data/WASP33_HST12495/ibpc01jjq_ima.fits'
p93
aS'/Users/lkreidberg/Desktop/Data/WASP33_HST12495/ibpc01jkq_ima.fits'
p94
aS'/Users/lkreidberg/Desktop/Data/WASP33_HST12495/ibpc01jlq_ima.fits'
p95
aS'/Users/lkreidberg/Desktop/Data/WASP33_HST12495/ibpc01jmq_ima.fits'
p96
aS'/Users/lkreidberg/Desktop/Data/WASP33_HST12495/ibpc01jnq_ima.fits'
p97
aS'/Users/lkreidberg/Desktop/Data/WASP33_HST12495/ibpc01joq_ima.fits'
p98
aS'/Users/lkreidberg/Desktop/Data/WASP33_HST12495/ibpc01jpq_ima.fits'
p99
aS'/Users/lkreidberg/Desktop/Data/WASP33_HST12495/ibpc01jqq_ima.fits'
p100
aS'/Users/lkreidberg/Desktop/Data/WASP33_HST12495/ibpc01jrq_ima.fits'
p101
aS'/Users/lkreidberg/Desktop/Data/WASP33_HST12495/ibpc01jsq_ima.fits'
p102
aS'/Users/lkreidberg/Desktop/Data/WASP33_HST12495/ibpc01jtq_ima.fits'
p103
aS'/Users/lkreidberg/Desktop/Data/WASP33_HST12495/ibpc01juq_ima.fits'
p104
aS'/Users/lkreidberg/Desktop/Data/WASP33_HST12495/ibpc01jvq_ima.fits'
p105
aS'/Users/lkreidberg/Desktop/Data/WASP33_HST12495/ibpc01jwq_ima.fits'
p106
aS'/Users/lkreidberg/Desktop/Data/WASP33_HST12495/ibpc01jxq_ima.fits'
p107
aS'/Users/lkreidberg/Desktop/Data/WASP33_HST12495/ibpc02nsq_ima.fits'
p108
aS'/Users/lkreidberg/Desktop/Data/WASP33_HST12495/ibpc02ntq_ima.fits'
p109
aS'/Users/lkreidberg/Desktop/Data/WASP33_HST12495/ibpc02nvq_ima.fits'
p110
aS'/Users/lkreidberg/Desktop/Data/WASP33_HST12495/ibpc02nxq_ima.fits'
p111
aS'/Users/lkreidberg/Desktop/Data/WASP33_HST12495/ibpc02nyq_ima.fits'
p112
aS'/Users/lkreidberg/Desktop/Data/WASP33_HST12495/ibpc02o0q_ima.fits'
p113
aS'/Users/lkreidberg/Desktop/Data/WASP33_HST12495/ibpc02o2q_ima.fits'
p114
aS'/Users/lkreidberg/Desktop/Data/WASP33_HST12495/ibpc02o3q_ima.fits'
p115
aS'/Users/lkreidberg/Desktop/Data/WASP33_HST12495/ibpc02o5q_ima.fits'
p116
aS'/Users/lkreidberg/Desktop/Data/WASP33_HST12495/ibpc02o7q_ima.fits'
p117
aS'/Users/lkreidberg/Desktop/Data/WASP33_HST12495/ibpc02o8q_ima.fits'
p118
aS'/Users/lkreidberg/Desktop/Data/WASP33_HST12495/ibpc02oaq_ima.fits'
p119
aS'/Users/lkreidberg/Desktop/Data/WASP33_HST12495/ibpc02ocq_ima.fits'
p120
aS'/Users/lkreidberg/Desktop/Data/WASP33_HST12495/ibpc02odq_ima.fits'
p121
aS'/Users/lkreidberg/Desktop/Data/WASP33_HST12495/ibpc02ofq_ima.fits'
p122
aS'/Users/lkreidberg/Desktop/Data/WASP33_HST12495/ibpc02ohq_ima.fits'
p123
aS'/Users/lkreidberg/Desktop/Data/WASP33_HST12495/ibpc02oiq_ima.fits'
p124
aS'/Users/lkreidberg/Desktop/Data/WASP33_HST12495/ibpc02okq_ima.fits'
p125
aS'/Users/lkreidberg/Desktop/Data/WASP33_HST12495/ibpc02omq_ima.fits'
p126
aS'/Users/lkreidberg/Desktop/Data/WASP33_HST12495/ibpc02onq_ima.fits'
p127
aS'/Users/lkreidberg/Desktop/Data/WASP33_HST12495/ibpc02opq_ima.fits'
p128
aS'/Users/lkreidberg/Desktop/Data/WASP33_HST12495/ibpc02orq_ima.fits'
p129
aS'/Users/lkreidberg/Desktop/Data/WASP33_HST12495/ibpc02osq_ima.fits'
p130
aS'/Users/lkreidberg/Desktop/Data/WASP33_HST12495/ibpc02ouq_ima.fits'
p131
aS'/Users/lkreidberg/Desktop/Data/WASP33_HST12495/ibpc02owq_ima.fits'
p132
aS'/Users/lkreidberg/Desktop/Data/WASP33_HST12495/ibpc02oxq_ima.fits'
p133
aS'/Users/lkreidberg/Desktop/Data/WASP33_HST12495/ibpc02ozq_ima.fits'
p134
aS'/Users/lkreidberg/Desktop/Data/WASP33_HST12495/ibpc02p1q_ima.fits'
p135
aS'/Users/lkreidberg/Desktop/Data/WASP33_HST12495/ibpc02p2q_ima.fits'
p136
aS'/Users/lkreidberg/Desktop/Data/WASP33_HST12495/ibpc02p7q_ima.fits'
p137
aS'/Users/lkreidberg/Desktop/Data/WASP33_HST12495/ibpc02p9q_ima.fits'
p138
aS'/Users/lkreidberg/Desktop/Data/WASP33_HST12495/ibpc02pbq_ima.fits'
p139
aS'/Users/lkreidberg/Desktop/Data/WASP33_HST12495/ibpc02pcq_ima.fits'
p140
aS'/Users/lkreidberg/Desktop/Data/WASP33_HST12495/ibpc02peq_ima.fits'
p141
aS'/Users/lkreidberg/Desktop/Data/WASP33_HST12495/ibpc02pgq_ima.fits'
p142
aS'/Users/lkreidberg/Desktop/Data/WASP33_HST12495/ibpc02phq_ima.fits'
p143
aS'/Users/lkreidberg/Desktop/Data/WASP33_HST12495/ibpc02pjq_ima.fits'
p144
aS'/Users/lkreidberg/Desktop/Data/WASP33_HST12495/ibpc02plq_ima.fits'
p145
aS'/Users/lkreidberg/Desktop/Data/WASP33_HST12495/ibpc02pmq_ima.fits'
p146
aS'/Users/lkreidberg/Desktop/Data/WASP33_HST12495/ibpc02poq_ima.fits'
p147
aS'/Users/lkreidberg/Desktop/Data/WASP33_HST12495/ibpc02pqq_ima.fits'
p148
aS'/Users/lkreidberg/Desktop/Data/WASP33_HST12495/ibpc02prq_ima.fits'
p149
aS'/Users/lkreidberg/Desktop/Data/WASP33_HST12495/ibpc02ptq_ima.fits'
p150
aS'/Users/lkreidberg/Desktop/Data/WASP33_HST12495/ibpc02pvq_ima.fits'
p151
aS'/Users/lkreidberg/Desktop/Data/WASP33_HST12495/ibpc02pwq_ima.fits'
p152
aS'/Users/lkreidberg/Desktop/Data/WASP33_HST12495/ibpc02pyq_ima.fits'
p153
aS'/Users/lkreidberg/Desktop/Data/WASP33_HST12495/ibpc02q1q_ima.fits'
p154
aS'/Users/lkreidberg/Desktop/Data/WASP33_HST12495/ibpc02q3q_ima.fits'
p155
aS'/Users/lkreidberg/Desktop/Data/WASP33_HST12495/ibpc02q6q_ima.fits'
p156
aS'/Users/lkreidberg/Desktop/Data/WASP33_HST12495/ibpc02q8q_ima.fits'
p157
aS'/Users/lkreidberg/Desktop/Data/WASP33_HST12495/ibpc02qaq_ima.fits'
p158
aS'/Users/lkreidberg/Desktop/Data/WASP33_HST12495/ibpc02qbq_ima.fits'
p159
aS'/Users/lkreidberg/Desktop/Data/WASP33_HST12495/ibpc02qdq_ima.fits'
p160
aS'/Users/lkreidberg/Desktop/Data/WASP33_HST12495/ibpc02qfq_ima.fits'
p161
aS'/Users/lkreidberg/Desktop/Data/WASP33_HST12495/ibpc02qgq_ima.fits'
p162
aS'/Users/lkreidberg/Desktop/Data/WASP33_HST12495/ibpc02qiq_ima.fits'
p163
aS'/Users/lkreidberg/Desktop/Data/WASP33_HST12495/ibpc02qkq_ima.fits'
p164
aS'/Users/lkreidberg/Desktop/Data/WASP33_HST12495/ibpc02qlq_ima.fits'
p165
aS'/Users/lkreidberg/Desktop/Data/WASP33_HST12495/ibpc02qnq_ima.fits'
p166
aS'/Users/lkreidberg/Desktop/Data/WASP33_HST12495/ibpc02qpq_ima.fits'
p167
aS'/Users/lkreidberg/Desktop/Data/WASP33_HST12495/ibpc02qqq_ima.fits'
p168
aS'/Users/lkreidberg/Desktop/Data/WASP33_HST12495/ibpc02qsq_ima.fits'
p169
aS'/Users/lkreidberg/Desktop/Data/WASP33_HST12495/ibpc02quq_ima.fits'
p170
aS'/Users/lkreidberg/Desktop/Data/WASP33_HST12495/ibpc02qvq_ima.fits'
p171
aS'/Users/lkreidberg/Desktop/Data/WASP33_HST12495/ibpc02qxq_ima.fits'
p172
aS'/Users/lkreidberg/Desktop/Data/WASP33_HST12495/ibpc02qzq_ima.fits'
p173
aS'/Users/lkreidberg/Desktop/Data/WASP33_HST12495/ibpc02r0q_ima.fits'
p174
aS'/Users/lkreidberg/Desktop/Data/WASP33_HST12495/ibpc02r2q_ima.fits'
p175
aS'/Users/lkreidberg/Desktop/Data/WASP33_HST12495/ibpc02r5q_ima.fits'
p176
aS'/Users/lkreidberg/Desktop/Data/WASP33_HST12495/ibpc02r7q_ima.fits'
p177
aS'/Users/lkreidberg/Desktop/Data/WASP33_HST12495/ibpc02raq_ima.fits'
p178
aS'/Users/lkreidberg/Desktop/Data/WASP33_HST12495/ibpc02rcq_ima.fits'
p179
aS'/Users/lkreidberg/Desktop/Data/WASP33_HST12495/ibpc02req_ima.fits'
p180
aS'/Users/lkreidberg/Desktop/Data/WASP33_HST12495/ibpc02rfq_ima.fits'
p181
aS'/Users/lkreidberg/Desktop/Data/WASP33_HST12495/ibpc02rhq_ima.fits'
p182
aS'/Users/lkreidberg/Desktop/Data/WASP33_HST12495/ibpc02rjq_ima.fits'
p183
aS'/Users/lkreidberg/Desktop/Data/WASP33_HST12495/ibpc02rkq_ima.fits'
p184
aS'/Users/lkreidberg/Desktop/Data/WASP33_HST12495/ibpc02rmq_ima.fits'
p185
aS'/Users/lkreidberg/Desktop/Data/WASP33_HST12495/ibpc02roq_ima.fits'
p186
aS'/Users/lkreidberg/Desktop/Data/WASP33_HST12495/ibpc02rpq_ima.fits'
p187
aS'/Users/lkreidberg/Desktop/Data/WASP33_HST12495/ibpc02rrq_ima.fits'
p188
aS'/Users/lkreidberg/Desktop/Data/WASP33_HST12495/ibpc02rtq_ima.fits'
p189
aS'/Users/lkreidberg/Desktop/Data/WASP33_HST12495/ibpc02ruq_ima.fits'
p190
aS'/Users/lkreidberg/Desktop/Data/WASP33_HST12495/ibpc02rvq_ima.fits'
p191
aS'/Users/lkreidberg/Desktop/Data/WASP33_HST12495/ibpc02rwq_ima.fits'
p192
aS'/Users/lkreidberg/Desktop/Data/WASP33_HST12495/ibpc02rxq_ima.fits'
p193
aS'/Users/lkreidberg/Desktop/Data/WASP33_HST12495/ibpc02ryq_ima.fits'
p194
aS'/Users/lkreidberg/Desktop/Data/WASP33_HST12495/ibpc02rzq_ima.fits'
p195
aS'/Users/lkreidberg/Desktop/Data/WASP33_HST12495/ibpc02s1q_ima.fits'
p196
aS'/Users/lkreidberg/Desktop/Data/WASP33_HST12495/ibpc02s4q_ima.fits'
p197
aS'/Users/lkreidberg/Desktop/Data/WASP33_HST12495/ibpc02s6q_ima.fits'
p198
aS'/Users/lkreidberg/Desktop/Data/WASP33_HST12495/ibpc02s9q_ima.fits'
p199
aS'/Users/lkreidberg/Desktop/Data/WASP33_HST12495/ibpc02saq_ima.fits'
p200
aS'/Users/lkreidberg/Desktop/Data/WASP33_HST12495/ibpc02sbq_ima.fits'
p201
aS'/Users/lkreidberg/Desktop/Data/WASP33_HST12495/ibpc02scq_ima.fits'
p202
aS'/Users/lkreidberg/Desktop/Data/WASP33_HST12495/ibpc02sdq_ima.fits'
p203
aS'/Users/lkreidberg/Desktop/Data/WASP33_HST12495/ibpc02seq_ima.fits'
p204
aS'/Users/lkreidberg/Desktop/Data/WASP33_HST12495/ibpc02sfq_ima.fits'
p205
aS'/Users/lkreidberg/Desktop/Data/WASP33_HST12495/ibpc02sgq_ima.fits'
p206
aS'/Users/lkreidberg/Desktop/Data/WASP33_HST12495/ibpc02shq_ima.fits'
p207
aS'/Users/lkreidberg/Desktop/Data/WASP33_HST12495/ibpc02siq_ima.fits'
p208
aS'/Users/lkreidberg/Desktop/Data/WASP33_HST12495/ibpc02sjq_ima.fits'
p209
aS'/Users/lkreidberg/Desktop/Data/WASP33_HST12495/ibpc02skq_ima.fits'
p210
aS'/Users/lkreidberg/Desktop/Data/WASP33_HST12495/ibpc02slq_ima.fits'
p211
aS'/Users/lkreidberg/Desktop/Data/WASP33_HST12495/ibpc02smq_ima.fits'
p212
aS'/Users/lkreidberg/Desktop/Data/WASP33_HST12495/ibpc02snq_ima.fits'
p213
aS'/Users/lkreidberg/Desktop/Data/WASP33_HST12495/ibpc02soq_ima.fits'
p214
a.